target datalayout = "e-m:e-p270:32:32-p271:32:32-p272:64:64-i64:64-i128:128-f80:128-n8:16:32:64-S128"
target triple = "x86_64-pc-linux-gnu"

@hf_vuze_dht_contact = internal global i32 0, align 4
@hf_vuze_dht_contact_type = internal global i32 0, align 4
@hf_vuze_dht_proto_ver = internal global i32 0, align 4
@ett_vuze_dht_contact = internal global i32 0, align 4
@vuze_dht_contact_type_vals = internal constant [2 x { i32, [4 x i8], ptr }] [{ i32, [4 x i8], ptr } { i32 1, [4 x i8] zeroinitializer, ptr @.str.140 }, { i32, [4 x i8], ptr } zeroinitializer], align 16
@.str.178 = private unnamed_addr constant [8 x i8] c"Unknown\00", align 1
@.str.191 = private unnamed_addr constant [23 x i8] c"%s contact, version %d\00", align 1
@.str.192 = private unnamed_addr constant [16 x i8] c"Contact Address\00", align 1

; Function Attrs: null_pointer_is_valid sspstrong uwtable
define internal i32 @dissect_vuze_dht_contact(ptr noundef %0, ptr noundef %1, ptr noundef %2, i32 noundef %3) #0 {
  %5 = alloca ptr, align 8
  %6 = alloca ptr, align 8
  %7 = alloca ptr, align 8
  %8 = alloca i32, align 4
  %9 = alloca ptr, align 8
  %10 = alloca ptr, align 8
  store ptr %0, ptr %5, align 8
  store ptr %1, ptr %6, align 8
  store ptr %2, ptr %7, align 8
  store i32 %3, ptr %8, align 4
  call void @llvm.lifetime.start.p0(i64 8, ptr %9) #5
  call void @llvm.lifetime.start.p0(i64 8, ptr %10) #5
  %11 = load ptr, ptr %7, align 8
  %12 = load i32, ptr @hf_vuze_dht_contact, align 4
  %13 = load ptr, ptr %5, align 8
  %14 = load i32, ptr %8, align 4
  %15 = load ptr, ptr %5, align 8
  %16 = load i32, ptr %8, align 4
  %17 = add i32 %16, 2
  %18 = call zeroext i8 @tvb_get_uint8(ptr noundef %15, i32 noundef %17)
  %19 = zext i8 %18 to i32
  %20 = add i32 %19, 5
  %21 = load ptr, ptr %5, align 8
  %22 = load i32, ptr %8, align 4
  %23 = call zeroext i8 @tvb_get_uint8(ptr noundef %21, i32 noundef %22)
  %24 = zext i8 %23 to i32
  %25 = call ptr @val_to_str_const(i32 noundef %24, ptr noundef @vuze_dht_contact_type_vals, ptr noundef @.str.178)
  %26 = load ptr, ptr %5, align 8
  %27 = load i32, ptr %8, align 4
  %28 = add i32 %27, 1
  %29 = call zeroext i8 @tvb_get_uint8(ptr noundef %26, i32 noundef %28)
  %30 = zext i8 %29 to i32
  %31 = call ptr (ptr, i32, ptr, i32, i32, ptr, ...) @proto_tree_add_none_format(ptr noundef %11, i32 noundef %12, ptr noundef %13, i32 noundef %14, i32 noundef %20, ptr noundef @.str.191, ptr noundef %25, i32 noundef %30)
  store ptr %31, ptr %9, align 8
  %32 = load ptr, ptr %9, align 8
  %33 = load i32, ptr @ett_vuze_dht_contact, align 4
  %34 = call ptr @proto_item_add_subtree(ptr noundef %32, i32 noundef %33)
  store ptr %34, ptr %10, align 8
  %35 = load ptr, ptr %10, align 8
  %36 = load i32, ptr @hf_vuze_dht_contact_type, align 4
  %37 = load ptr, ptr %5, align 8
  %38 = load i32, ptr %8, align 4
  %39 = call ptr @proto_tree_add_item(ptr noundef %35, i32 noundef %36, ptr noundef %37, i32 noundef %38, i32 noundef 1, i32 noundef 0)
  %40 = load i32, ptr %8, align 4
  %41 = add i32 %40, 1
  store i32 %41, ptr %8, align 4
  %42 = load ptr, ptr %10, align 8
  %43 = load i32, ptr @hf_vuze_dht_proto_ver, align 4
  %44 = load ptr, ptr %5, align 8
  %45 = load i32, ptr %8, align 4
  %46 = call ptr @proto_tree_add_item(ptr noundef %42, i32 noundef %43, ptr noundef %44, i32 noundef %45, i32 noundef 1, i32 noundef 0)
  %47 = load i32, ptr %8, align 4
  %48 = add i32 %47, 1
  store i32 %48, ptr %8, align 4
  %49 = load ptr, ptr %5, align 8
  %50 = load ptr, ptr %6, align 8
  %51 = load ptr, ptr %10, align 8
  %52 = load i32, ptr %8, align 4
  %53 = call i32 @dissect_vuze_dht_address(ptr noundef %49, ptr noundef %50, ptr noundef %51, i32 noundef %52, ptr noundef @.str.192)
  store i32 %53, ptr %8, align 4
  %54 = load i32, ptr %8, align 4
  call void @llvm.lifetime.end.p0(i64 8, ptr %10) #5
  call void @llvm.lifetime.end.p0(i64 8, ptr %9) #5
  ret i32 %54
}