; Function Attrs: null_pointer_is_valid sspstrong uwtable
define internal fastcc noundef i32 @dissect_vuze_dht_contact(ptr noundef %0, ptr noundef readonly captures(none) %1, ptr noundef %2, i32 noundef %3) unnamed_addr #0 {
  %5 = load i32, ptr @hf_vuze_dht_contact, align 4
  %6 = add i32 %3, 2
  %7 = tail call zeroext i8 @tvb_get_uint8(ptr noundef %0, i32 noundef %6)
  %8 = zext i8 %7 to i32
  %9 = add nuw nsw i32 %8, 5
  %10 = tail call zeroext i8 @tvb_get_uint8(ptr noundef %0, i32 noundef %3)
  %11 = zext i8 %10 to i32
  %12 = tail call ptr @val_to_str_const(i32 noundef %11, ptr noundef nonnull @vuze_dht_contact_type_vals, ptr noundef nonnull @.str.178)
  %13 = add i32 %3, 1
  %14 = tail call zeroext i8 @tvb_get_uint8(ptr noundef %0, i32 noundef %13)
  %15 = zext i8 %14 to i32
  %16 = tail call ptr (ptr, i32, ptr, i32, i32, ptr, ...) @proto_tree_add_none_format(ptr noundef %2, i32 noundef %5, ptr noundef %0, i32 noundef %3, i32 noundef %9, ptr noundef nonnull @.str.191, ptr noundef %12, i32 noundef %15)
  %17 = load i32, ptr @ett_vuze_dht_contact, align 4
  %18 = tail call ptr @proto_item_add_subtree(ptr noundef %16, i32 noundef %17)
  %19 = load i32, ptr @hf_vuze_dht_contact_type, align 4
  %20 = tail call ptr @proto_tree_add_item(ptr noundef %18, i32 noundef %19, ptr noundef %0, i32 noundef %3, i32 noundef 1, i32 noundef 0)
  %21 = load i32, ptr @hf_vuze_dht_proto_ver, align 4
  %22 = tail call ptr @proto_tree_add_item(ptr noundef %18, i32 noundef %21, ptr noundef %0, i32 noundef %13, i32 noundef 1, i32 noundef 0)
  %23 = tail call fastcc i32 @dissect_vuze_dht_address(ptr noundef %0, ptr noundef %1, ptr noundef %18, i32 noundef %6, ptr noundef nonnull @.str.192)
  ret i32 %23
}